#include <math.h>
#include <stdio.h>
#include <stdlib.h>
#include <string.h>
#include <iostream>
using namespace std;

//******************************************
//*??????????.cpp               **
//*?????? 1100012972                **
//*???2011.11.30                       **
//****************************************** 
int main()
{
	char str[1000]; //???????????????
	char *p ; //??????
	cin.getline(str,1000); //????
	p = str; //?p????????????
	for (; *p != '\0'; p++) //??????????
	{
		if (*p != ' ') //????????
			cout << *p; //??????
		else //???????
		{
			if (*(p + 1) != ' ') //????????????
				cout << " "; //????
		}
	}
	return 0;
}
